target datalayout = "e-m:e-p270:32:32-p271:32:32-p272:64:64-i64:64-i128:128-f80:128-n8:16:32:64-S128"
target triple = "x86_64-pc-linux-gnu"

@mt = internal global [624 x i64] zeroinitializer, align 16
@mti = internal global i32 625, align 4

; Function Attrs: nounwind uwtable
define void @init_genrand(i64 noundef %0) #0 {
  %2 = alloca i64, align 8
  store i64 %0, ptr %2, align 8
  %3 = load i64, ptr %2, align 8
  %4 = and i64 %3, 4294967295
  store i64 %4, ptr @mt, align 16
  store i32 1, ptr @mti, align 4
  br label %5

5:                                                ; preds = %33, %1
  %6 = load i32, ptr @mti, align 4
  %7 = icmp slt i32 %6, 624
  br i1 %7, label %8, label %36

8:                                                ; preds = %5
  %9 = load i32, ptr @mti, align 4
  %10 = sub nsw i32 %9, 1
  %11 = sext i32 %10 to i64
  %12 = getelementptr inbounds [624 x i64], ptr @mt, i64 0, i64 %11
  %13 = load i64, ptr %12, align 8
  %14 = load i32, ptr @mti, align 4
  %15 = sub nsw i32 %14, 1
  %16 = sext i32 %15 to i64
  %17 = getelementptr inbounds [624 x i64], ptr @mt, i64 0, i64 %16
  %18 = load i64, ptr %17, align 8
  %19 = lshr i64 %18, 30
  %20 = xor i64 %13, %19
  %21 = mul i64 1812433253, %20
  %22 = load i32, ptr @mti, align 4
  %23 = sext i32 %22 to i64
  %24 = add i64 %21, %23
  %25 = load i32, ptr @mti, align 4
  %26 = sext i32 %25 to i64
  %27 = getelementptr inbounds [624 x i64], ptr @mt, i64 0, i64 %26
  store i64 %24, ptr %27, align 8
  %28 = load i32, ptr @mti, align 4
  %29 = sext i32 %28 to i64
  %30 = getelementptr inbounds [624 x i64], ptr @mt, i64 0, i64 %29
  %31 = load i64, ptr %30, align 8
  %32 = and i64 %31, 4294967295
  store i64 %32, ptr %30, align 8
  br label %33

33:                                               ; preds = %8
  %34 = load i32, ptr @mti, align 4
  %35 = add nsw i32 %34, 1
  store i32 %35, ptr @mti, align 4
  br label %5

36:                                               ; preds = %5
  ret void
}