; Function Attrs: nofree norecurse nosync nounwind memory(write, argmem: none, inaccessiblemem: none) uwtable
define void @init_genrand(i64 noundef %0) local_unnamed_addr #0 {
  %2 = and i64 %0, 4294967295
  store i64 %2, ptr @mt, align 16
  br label %3

3:                                                ; preds = %1, %3
  %4 = phi i64 [ %2, %1 ], [ %10, %3 ]
  %indvars.iv = phi i64 [ 1, %1 ], [ %indvars.iv.next, %3 ]
  %5 = lshr i64 %4, 30
  %6 = xor i64 %5, %4
  %7 = mul nuw nsw i64 %6, 1812433253
  %8 = add nuw i64 %7, %indvars.iv
  %9 = getelementptr inbounds [624 x i64], ptr @mt, i64 0, i64 %indvars.iv
  %10 = and i64 %8, 4294967295
  store i64 %10, ptr %9, align 8
  %indvars.iv.next = add nuw nsw i64 %indvars.iv, 1
  %exitcond.not = icmp eq i64 %indvars.iv.next, 624
  br i1 %exitcond.not, label %11, label %3

11:                                               ; preds = %3
  store i32 624, ptr @mti, align 4
  ret void
}